target datalayout = "e-m:e-p270:32:32-p271:32:32-p272:64:64-i64:64-i128:128-f80:128-n8:16:32:64-S128"
target triple = "x86_64-pc-linux-gnu"

%struct.expert_field = type { i32, i32 }
%struct.MessageHeader = type { [4 x i8], %struct.Version, i8, i8, i32, i32, i32, ptr }
%struct.Version = type { i8, i8 }

@hf_Tango_Device_write_attributes_values_loop = internal global i32 0, align 4
@ei_tango_unknown_giop_msg = internal global %struct.expert_field zeroinitializer, align 4
@ei_tango_unknown_exception = internal global %struct.expert_field zeroinitializer, align 4
@ett_giop_struct = internal global i32 0, align 4
@ett_giop_sequence = internal global i32 0, align 4
@boundary = internal global i32 12, align 4
@.str.771 = private unnamed_addr constant [21 x i8] c"Unknown exception %d\00", align 1
@.str.772 = private unnamed_addr constant [24 x i8] c"Unknown GIOP message %d\00", align 1
@.str.869 = private unnamed_addr constant [28 x i8] c"struct Tango_AttributeValue\00", align 1
@.str.890 = private unnamed_addr constant [46 x i8] c"sequence Tango_Device_write_attributes_values\00", align 1

; Function Attrs: null_pointer_is_valid sspstrong uwtable
define internal void @decode_Tango_Device_write_attributes(ptr noundef %0, ptr noundef %1, ptr noundef %2, ptr noundef %3, ptr noundef %4, ptr noundef %5, ptr noundef %6, i1 noundef zeroext %7) #0 {
  %9 = alloca ptr, align 8
  %10 = alloca ptr, align 8
  %11 = alloca ptr, align 8
  %12 = alloca ptr, align 8
  %13 = alloca ptr, align 8
  %14 = alloca ptr, align 8
  %15 = alloca ptr, align 8
  %16 = alloca i8, align 1
  %17 = alloca i32, align 4
  %18 = alloca i32, align 4
  %19 = alloca ptr, align 8
  %20 = alloca ptr, align 8
  store ptr %0, ptr %9, align 8
  store ptr %1, ptr %10, align 8
  store ptr %2, ptr %11, align 8
  store ptr %3, ptr %12, align 8
  store ptr %4, ptr %13, align 8
  store ptr %5, ptr %14, align 8
  store ptr %6, ptr %15, align 8
  %21 = zext i1 %7 to i8
  store i8 %21, ptr %16, align 1
  call void @llvm.lifetime.start.p0(i64 4, ptr %17) #6
  call void @llvm.lifetime.start.p0(i64 4, ptr %18) #6
  %22 = load ptr, ptr %14, align 8
  %23 = getelementptr inbounds nuw %struct.MessageHeader, ptr %22, i32 0, i32 3
  %24 = load i8, ptr %23, align 1
  %25 = zext i8 %24 to i32
  switch i32 %25, label %85 [
    i32 0, label %26
    i32 1, label %73
  ]

26:                                               ; preds = %8
  %27 = load ptr, ptr %9, align 8
  %28 = load ptr, ptr %13, align 8
  %29 = load i8, ptr %16, align 1, !range !6, !noundef !7
  %30 = trunc i8 %29 to i1
  %31 = load i32, ptr @boundary, align 4
  %32 = call i32 @get_CDR_ulong(ptr noundef %27, ptr noundef %28, i1 noundef zeroext %30, i32 noundef %31)
  store i32 %32, ptr %17, align 4
  %33 = load ptr, ptr %11, align 8
  %34 = load i32, ptr @hf_Tango_Device_write_attributes_values_loop, align 4
  %35 = load ptr, ptr %9, align 8
  %36 = load ptr, ptr %13, align 8
  %37 = load i32, ptr %36, align 4
  %38 = sub i32 %37, 4
  %39 = load i32, ptr %17, align 4
  %40 = call ptr @proto_tree_add_uint(ptr noundef %33, i32 noundef %34, ptr noundef %35, i32 noundef %38, i32 noundef 4, i32 noundef %39)
  call void @llvm.lifetime.start.p0(i64 8, ptr %19) #6
  %41 = load ptr, ptr %11, align 8
  store ptr %41, ptr %19, align 8
  %42 = load ptr, ptr %11, align 8
  %43 = load ptr, ptr %9, align 8
  %44 = load ptr, ptr %13, align 8
  %45 = load i32, ptr %44, align 4
  %46 = load i32, ptr @ett_giop_sequence, align 4
  %47 = call ptr @proto_tree_add_subtree(ptr noundef %42, ptr noundef %43, i32 noundef %45, i32 noundef -1, i32 noundef %46, ptr noundef null, ptr noundef @.str.890)
  store ptr %47, ptr %11, align 8
  store i32 0, ptr %18, align 4
  br label %48

48:                                               ; preds = %68, %26
  %49 = load i32, ptr %18, align 4
  %50 = load i32, ptr %17, align 4
  %51 = icmp ult i32 %49, %50
  br i1 %51, label %52, label %71

52:                                               ; preds = %48
  call void @llvm.lifetime.start.p0(i64 8, ptr %20) #6
  %53 = load ptr, ptr %11, align 8
  %54 = load ptr, ptr %9, align 8
  %55 = load ptr, ptr %13, align 8
  %56 = load i32, ptr %55, align 4
  %57 = load i32, ptr @ett_giop_struct, align 4
  %58 = call ptr @proto_tree_add_subtree(ptr noundef %53, ptr noundef %54, i32 noundef %56, i32 noundef -1, i32 noundef %57, ptr noundef null, ptr noundef @.str.869)
  store ptr %58, ptr %20, align 8
  %59 = load ptr, ptr %9, align 8
  %60 = load ptr, ptr %10, align 8
  %61 = load ptr, ptr %20, align 8
  %62 = load ptr, ptr %12, align 8
  %63 = load ptr, ptr %13, align 8
  %64 = load ptr, ptr %14, align 8
  %65 = load ptr, ptr %15, align 8
  %66 = load i8, ptr %16, align 1, !range !6, !noundef !7
  %67 = trunc i8 %66 to i1
  call void @decode_Tango_AttributeValue_st(ptr noundef %59, ptr noundef %60, ptr noundef %61, ptr noundef %62, ptr noundef %63, ptr noundef %64, ptr noundef %65, i1 noundef zeroext %67)
  call void @llvm.lifetime.end.p0(i64 8, ptr %20) #6
  br label %68

68:                                               ; preds = %52
  %69 = load i32, ptr %18, align 4
  %70 = add i32 %69, 1
  store i32 %70, ptr %18, align 4
  br label %48, !llvm.loop !42

71:                                               ; preds = %48
  %72 = load ptr, ptr %19, align 8
  store ptr %72, ptr %11, align 8
  call void @llvm.lifetime.end.p0(i64 8, ptr %19) #6
  br label %93

73:                                               ; preds = %8
  %74 = load ptr, ptr %14, align 8
  %75 = getelementptr inbounds nuw %struct.MessageHeader, ptr %74, i32 0, i32 6
  %76 = load i32, ptr %75, align 8
  switch i32 %76, label %77 [
    i32 0, label %84
    i32 1, label %84
  ]

77:                                               ; preds = %73
  %78 = load ptr, ptr %10, align 8
  %79 = load ptr, ptr %12, align 8
  %80 = load ptr, ptr %14, align 8
  %81 = getelementptr inbounds nuw %struct.MessageHeader, ptr %80, i32 0, i32 6
  %82 = load i32, ptr %81, align 8
  %83 = call ptr (ptr, ptr, ptr, ptr, ...) @expert_add_info_format(ptr noundef %78, ptr noundef %79, ptr noundef @ei_tango_unknown_exception, ptr noundef @.str.771, i32 noundef %82)
  br label %84

84:                                               ; preds = %77, %73, %73
  br label %93

85:                                               ; preds = %8
  %86 = load ptr, ptr %10, align 8
  %87 = load ptr, ptr %12, align 8
  %88 = load ptr, ptr %14, align 8
  %89 = getelementptr inbounds nuw %struct.MessageHeader, ptr %88, i32 0, i32 3
  %90 = load i8, ptr %89, align 1
  %91 = zext i8 %90 to i32
  %92 = call ptr (ptr, ptr, ptr, ptr, ...) @expert_add_info_format(ptr noundef %86, ptr noundef %87, ptr noundef @ei_tango_unknown_giop_msg, ptr noundef @.str.772, i32 noundef %91)
  br label %93

93:                                               ; preds = %85, %84, %71
  call void @llvm.lifetime.end.p0(i64 4, ptr %18) #6
  call void @llvm.lifetime.end.p0(i64 4, ptr %17) #6
  ret void
}